; ModuleID = 'bench/linux/original/utstate.ll'
source_filename = "bench/linux/original/utstate.ll"
target datalayout = "e-m:e-p270:32:32-p271:32:32-p272:64:64-i64:64-i128:128-f80:128-n8:16:32:64-S128"
target triple = "x86_64-unknown-linux-gnu"

%struct.pcpu_hot = type { %union.anon }
%union.anon = type { %struct.anon, [16 x i8] }
%struct.anon = type { ptr, i32, i32, i64, i64, ptr, i16, i8 }

@acpi_gbl_state_cache = external dso_local local_unnamed_addr global ptr, align 8
@_acpi_module_name = internal constant [8 x i8] c"utstate\00", align 1
@.str = private unnamed_addr constant [39 x i8] c"Invalid zero ID from AcpiOsGetThreadId\00", align 1
@pcpu_hot = external dso_local global %struct.pcpu_hot, section ".data..percpu..shared_aligned", align 64

; Function Attrs: fn_ret_thunk_extern mustprogress nofree norecurse nosync nounwind null_pointer_is_valid willreturn memory(argmem: readwrite)
define dso_local void @acpi_ut_push_generic_state(ptr nocapture noundef %0, ptr noundef %1) local_unnamed_addr #0 align 16 {
  %3 = load ptr, ptr %0, align 8
  store ptr %3, ptr %1, align 8
  store ptr %1, ptr %0, align 8
  ret void
}

; Function Attrs: fn_ret_thunk_extern mustprogress nofree norecurse nosync nounwind null_pointer_is_valid willreturn memory(read, argmem: readwrite, inaccessiblemem: none)
define dso_local ptr @acpi_ut_pop_generic_state(ptr nocapture noundef %0) local_unnamed_addr #1 align 16 {
  %2 = load ptr, ptr %0, align 8
  %3 = icmp eq ptr %2, null
  br i1 %3, label %6, label %4

4:                                                ; preds = %1
  %5 = load ptr, ptr %2, align 8
  store ptr %5, ptr %0, align 8
  br label %6

6:                                                ; preds = %4, %1
  ret ptr %2
}

; Function Attrs: mustprogress nocallback nofree nosync nounwind willreturn memory(argmem: readwrite)
declare void @llvm.lifetime.start.p0(i64 immarg, ptr nocapture) #2

; Function Attrs: mustprogress nocallback nofree nosync nounwind willreturn memory(argmem: readwrite)
declare void @llvm.lifetime.end.p0(i64 immarg, ptr nocapture) #2

; Function Attrs: fn_ret_thunk_extern nounwind null_pointer_is_valid
define dso_local ptr @acpi_ut_create_generic_state() local_unnamed_addr #3 align 16 {
  %1 = alloca i64, align 8
  %2 = load ptr, ptr @acpi_gbl_state_cache, align 8
  call void @llvm.lifetime.start.p0(i64 8, ptr nonnull %1) #5
  store i64 0, ptr %1, align 8, !annotation !5
  call void asm sideeffect "# __raw_save_flags\0A\09pushf ; pop $0", "=*rm,~{memory},~{dirflag},~{fpsr},~{flags}"(ptr nonnull elementtype(i64) %1) #5, !srcloc !6
  %3 = load i64, ptr %1, align 8
  call void @llvm.lifetime.end.p0(i64 8, ptr nonnull %1) #5
  %4 = and i64 %3, 512
  %5 = icmp eq i64 %4, 0
  %6 = select i1 %5, i32 2336, i32 3520
  %7 = call noalias align 8 ptr @kmem_cache_alloc(ptr noundef %2, i32 noundef %6) #5
  %8 = icmp eq ptr %7, null
  br i1 %8, label %11, label %9

9:                                                ; preds = %0
  %10 = getelementptr inbounds i8, ptr %7, i64 8
  store i8 2, ptr %10, align 8
  br label %11

11:                                               ; preds = %9, %0
  ret ptr %7
}

; Function Attrs: fn_ret_thunk_extern nounwind null_pointer_is_valid
define dso_local ptr @acpi_ut_create_thread_state() local_unnamed_addr #3 align 16 {
  %1 = alloca i64, align 8
  %2 = load ptr, ptr @acpi_gbl_state_cache, align 8
  call void @llvm.lifetime.start.p0(i64 8, ptr nonnull %1) #5
  store i64 0, ptr %1, align 8, !annotation !5
  call void asm sideeffect "# __raw_save_flags\0A\09pushf ; pop $0", "=*rm,~{memory},~{dirflag},~{fpsr},~{flags}"(ptr nonnull elementtype(i64) %1) #5, !srcloc !6
  %3 = load i64, ptr %1, align 8
  call void @llvm.lifetime.end.p0(i64 8, ptr nonnull %1) #5
  %4 = and i64 %3, 512
  %5 = icmp eq i64 %4, 0
  %6 = select i1 %5, i32 2336, i32 3520
  %7 = call noalias align 8 ptr @kmem_cache_alloc(ptr noundef %2, i32 noundef %6) #5
  %8 = icmp eq ptr %7, null
  br i1 %8, label %15, label %9

9:                                                ; preds = %0
  %10 = getelementptr inbounds i8, ptr %7, i64 8
  store i8 11, ptr %10, align 8
  %11 = call i64 asm "movq %gs:${1:P}, $0", "=r,p,~{dirflag},~{fpsr},~{flags}"(ptr nonnull @pcpu_hot) #6, !srcloc !7
  %12 = getelementptr inbounds i8, ptr %7, i64 32
  store i64 %11, ptr %12, align 8
  %13 = icmp eq i64 %11, 0
  br i1 %13, label %14, label %15

14:                                               ; preds = %9
  call void (ptr, i32, ptr, ...) @acpi_error(ptr noundef nonnull @_acpi_module_name, i32 noundef 134, ptr noundef nonnull @.str) #5
  store i64 1, ptr %12, align 8
  br label %15

15:                                               ; preds = %14, %9, %0
  ret ptr %7
}

; Function Attrs: null_pointer_is_valid
declare dso_local void @acpi_error(ptr noundef, i32 noundef, ptr noundef, ...) local_unnamed_addr #4

; Function Attrs: fn_ret_thunk_extern nounwind null_pointer_is_valid
define dso_local ptr @acpi_ut_create_update_state(ptr noundef %0, i16 noundef zeroext %1) local_unnamed_addr #3 align 16 {
  %3 = alloca i64, align 8
  %4 = load ptr, ptr @acpi_gbl_state_cache, align 8
  call void @llvm.lifetime.start.p0(i64 8, ptr nonnull %3) #5
  store i64 0, ptr %3, align 8, !annotation !5
  call void asm sideeffect "# __raw_save_flags\0A\09pushf ; pop $0", "=*rm,~{memory},~{dirflag},~{fpsr},~{flags}"(ptr nonnull elementtype(i64) %3) #5, !srcloc !6
  %5 = load i64, ptr %3, align 8
  call void @llvm.lifetime.end.p0(i64 8, ptr nonnull %3) #5
  %6 = and i64 %5, 512
  %7 = icmp eq i64 %6, 0
  %8 = select i1 %7, i32 2336, i32 3520
  %9 = call noalias align 8 ptr @kmem_cache_alloc(ptr noundef %4, i32 noundef %8) #5
  %10 = icmp eq ptr %9, null
  br i1 %10, label %15, label %11

11:                                               ; preds = %2
  %12 = getelementptr inbounds i8, ptr %9, i64 8
  store i8 3, ptr %12, align 8
  %13 = getelementptr inbounds i8, ptr %9, i64 16
  store ptr %0, ptr %13, align 8
  %14 = getelementptr inbounds i8, ptr %9, i64 10
  store i16 %1, ptr %14, align 2
  br label %15

15:                                               ; preds = %11, %2
  ret ptr %9
}

; Function Attrs: fn_ret_thunk_extern nounwind null_pointer_is_valid
define dso_local ptr @acpi_ut_create_pkg_state(ptr noundef %0, ptr noundef %1, i32 noundef %2) local_unnamed_addr #3 align 16 {
  %4 = alloca i64, align 8
  %5 = load ptr, ptr @acpi_gbl_state_cache, align 8
  call void @llvm.lifetime.start.p0(i64 8, ptr nonnull %4) #5
  store i64 0, ptr %4, align 8, !annotation !5
  call void asm sideeffect "# __raw_save_flags\0A\09pushf ; pop $0", "=*rm,~{memory},~{dirflag},~{fpsr},~{flags}"(ptr nonnull elementtype(i64) %4) #5, !srcloc !6
  %6 = load i64, ptr %4, align 8
  call void @llvm.lifetime.end.p0(i64 8, ptr nonnull %4) #5
  %7 = and i64 %6, 512
  %8 = icmp eq i64 %7, 0
  %9 = select i1 %8, i32 2336, i32 3520
  %10 = call noalias align 8 ptr @kmem_cache_alloc(ptr noundef %5, i32 noundef %9) #5
  %11 = icmp eq ptr %10, null
  br i1 %11, label %18, label %12

12:                                               ; preds = %3
  %13 = getelementptr inbounds i8, ptr %10, i64 8
  store i8 4, ptr %13, align 8
  %14 = getelementptr inbounds i8, ptr %10, i64 24
  store ptr %0, ptr %14, align 8
  %15 = getelementptr inbounds i8, ptr %10, i64 32
  store ptr %1, ptr %15, align 8
  %16 = getelementptr inbounds i8, ptr %10, i64 16
  store i32 %2, ptr %16, align 8
  %17 = getelementptr inbounds i8, ptr %10, i64 56
  store i32 1, ptr %17, align 8
  br label %18

18:                                               ; preds = %12, %3
  ret ptr %10
}

; Function Attrs: fn_ret_thunk_extern nounwind null_pointer_is_valid
define dso_local ptr @acpi_ut_create_control_state() local_unnamed_addr #3 align 16 {
  %1 = alloca i64, align 8
  %2 = load ptr, ptr @acpi_gbl_state_cache, align 8
  call void @llvm.lifetime.start.p0(i64 8, ptr nonnull %1) #5
  store i64 0, ptr %1, align 8, !annotation !5
  call void asm sideeffect "# __raw_save_flags\0A\09pushf ; pop $0", "=*rm,~{memory},~{dirflag},~{fpsr},~{flags}"(ptr nonnull elementtype(i64) %1) #5, !srcloc !6
  %3 = load i64, ptr %1, align 8
  call void @llvm.lifetime.end.p0(i64 8, ptr nonnull %1) #5
  %4 = and i64 %3, 512
  %5 = icmp eq i64 %4, 0
  %6 = select i1 %5, i32 2336, i32 3520
  %7 = call noalias align 8 ptr @kmem_cache_alloc(ptr noundef %2, i32 noundef %6) #5
  %8 = icmp eq ptr %7, null
  br i1 %8, label %12, label %9

9:                                                ; preds = %0
  %10 = getelementptr inbounds i8, ptr %7, i64 8
  store i8 5, ptr %10, align 8
  %11 = getelementptr inbounds i8, ptr %7, i64 12
  store i16 193, ptr %11, align 4
  br label %12

12:                                               ; preds = %9, %0
  ret ptr %7
}

; Function Attrs: fn_ret_thunk_extern nounwind null_pointer_is_valid
define dso_local void @acpi_ut_delete_generic_state(ptr noundef %0) local_unnamed_addr #3 align 16 {
  %2 = icmp eq ptr %0, null
  br i1 %2, label %6, label %3

3:                                                ; preds = %1
  %4 = load ptr, ptr @acpi_gbl_state_cache, align 8
  %5 = tail call i32 @acpi_os_release_object(ptr noundef %4, ptr noundef nonnull %0) #5
  br label %6

6:                                                ; preds = %3, %1
  ret void
}

; Function Attrs: null_pointer_is_valid
declare dso_local i32 @acpi_os_release_object(ptr noundef, ptr noundef) local_unnamed_addr #4

; Function Attrs: null_pointer_is_valid
declare dso_local noalias ptr @kmem_cache_alloc(ptr noundef, i32 noundef) local_unnamed_addr #4


!llvm.module.flags = !{!0, !1, !2, !3, !4}

!0 = !{i32 1, !"wchar_size", i32 2}
!1 = !{i32 8, !"cf-protection-branch", i32 1}
!2 = !{i32 4, !"function_return_thunk_extern", i32 1}
!3 = !{i32 4, !"indirect_branch_cs_prefix", i32 1}
!4 = !{i32 4, !"SkipRaxSetup", i32 1}
!5 = !{!"auto-init"}
!6 = !{i64 1804415, i64 1804436}
!7 = !{i64 2148280149}
